Certificate:
    Data:
        Version: 3 (0x2)
        Serial Number: 1 (0x1)
    Signature Algorithm: sha1WithRSAEncryption
        Issuer: C=CN, ST=BeiJing, L=BeiJing, O=IIE, OU=IIE, CN=172.17.4.203/emailAddress=xingxingwang@bupt.edu.cn
        Validity
            Not Before: Sep 12 02:47:31 2018 GMT
            Not After : Sep  9 02:47:31 2028 GMT
        Subject: C=CN, ST=BeiJing, O=IIE, OU=IIE, L=BeiJing, CN=172.17.4.203/emailAddress=xingxingwang@bupt.edu.cn
        Subject Public Key Info:
            Public Key Algorithm: rsaEncryption
                Public-Key: (2048 bit)
                Modulus:
                    00:b2:e6:65:4d:ec:66:bd:12:ae:79:34:ac:c5:b8:
                    dd:2c:06:8c:48:3e:e0:a5:59:4e:9d:e5:83:8d:e6:
                    e1:30:68:c9:e0:04:80:a0:f2:5a:48:5e:11:86:c5:
                    92:c1:1a:5a:c3:d6:e7:07:6e:ad:a2:f6:a0:c7:b9:
                    23:87:4f:97:6b:54:49:43:e4:da:4c:ca:df:4a:45:
                    07:41:cd:e4:0d:45:55:92:d4:6e:53:27:84:e1:34:
                    3f:05:3e:d5:91:d9:eb:08:14:cb:7a:bf:35:88:ca:
                    02:19:64:6d:74:71:05:f7:be:94:9a:bb:1a:6c:4a:
                    71:3b:b8:fe:94:c5:08:e6:b9:63:33:68:66:62:1c:
                    1a:0d:27:aa:73:7e:d1:b2:d8:04:cd:65:de:72:77:
                    36:a4:5c:ff:e2:dd:df:a7:65:c8:14:60:ba:fd:a9:
                    39:72:36:25:c4:db:62:9a:18:48:25:78:55:58:59:
                    3e:0a:f0:62:71:2a:9f:33:7f:77:de:ba:68:50:6f:
                    f8:67:71:92:5a:91:21:b2:60:3a:6e:2d:7f:de:09:
                    5e:4a:4b:1f:ca:70:82:71:52:fc:9e:df:59:fa:5c:
                    42:14:bf:29:ce:f3:83:28:d5:5a:7d:a5:43:00:3e:
                    9a:2f:ae:38:6c:4f:0c:fa:16:6c:a7:52:4a:87:7d:
                    b5:d5
                Exponent: 65537 (0x10001)
        X509v3 extensions:
            X509v3 Basic Constraints: 
                CA:FALSE
            X509v3 Key Usage: 
                Digital Signature, Non Repudiation, Key Encipherment
    Signature Algorithm: sha1WithRSAEncryption
         5d:6c:6c:b1:f0:76:22:38:73:24:21:bc:4e:cc:8c:7f:42:b9:
         84:0b:a7:f0:3f:83:e6:5e:28:0c:5f:20:dd:19:5c:6e:ee:d7:
         57:4d:ec:d8:fb:af:cc:ed:d5:fd:85:d3:45:89:17:9d:81:75:
         b0:b9:84:17:4b:f9:5b:e6:ae:1f:fe:9a:0f:e5:04:48:21:80:
         38:5d:cb:a2:fd:33:01:09:67:51:c1:45:f0:34:c4:b0:99:a0:
         2c:d5:6e:6c:cb:66:64:66:1b:a4:66:02:09:9c:7c:c4:1c:c4:
         1e:58:e7:27:c9:de:b5:81:82:20:6d:76:61:07:6c:aa:2e:f6:
         0c:0e:46:5c:c4:9f:60:5d:8e:a3:69:55:49:f4:ff:7e:de:f9:
         93:88:4a:6c:55:40:87:7b:b5:b0:2c:ee:04:f6:15:24:04:3d:
         6f:60:71:74:d2:e6:00:83:e2:bb:7d:1a:03:65:0e:4f:14:98:
         55:1a:8a:bd:80:db:b3:78:e7:eb:7a:36:ed:c2:55:3f:50:8f:
         1e:de:ea:24:20:c0:26:72:50:7c:e3:1f:1a:99:74:76:7f:8c:
         78:b6:8e:ed:e5:97:0c:02:89:1e:aa:63:c6:1a:4e:33:80:44:
         64:5d:ba:87:6c:ea:b1:c9:31:0d:99:79:b2:83:77:67:56:75:
         bd:53:31:f3
-----BEGIN CERTIFICATE-----
MIIDsTCCApmgAwIBAgIBATANBgkqhkiG9w0BAQUFADCBjTELMAkGA1UEBhMCQ04x
EDAOBgNVBAgMB0JlaUppbmcxEDAOBgNVBAcMB0JlaUppbmcxDDAKBgNVBAoMA0lJ
RTEMMAoGA1UECwwDSUlFMRUwEwYDVQQDDAwxNzIuMTcuNC4yMDMxJzAlBgkqhkiG
9w0BCQEWGHhpbmd4aW5nd2FuZ0BidXB0LmVkdS5jbjAeFw0xODA5MTIwMjQ3MzFa
Fw0yODA5MDkwMjQ3MzFaMIGNMQswCQYDVQQGEwJDTjEQMA4GA1UECAwHQmVpSmlu
ZzEMMAoGA1UECgwDSUlFMQwwCgYDVQQLDANJSUUxEDAOBgNVBAcMB0JlaUppbmcx
FTATBgNVBAMMDDE3Mi4xNy40LjIwMzEnMCUGCSqGSIb3DQEJARYYeGluZ3hpbmd3
YW5nQGJ1cHQuZWR1LmNuMIIBIjANBgkqhkiG9w0BAQEFAAOCAQ8AMIIBCgKCAQEA
suZlTexmvRKueTSsxbjdLAaMSD7gpVlOneWDjebhMGjJ4ASAoPJaSF4RhsWSwRpa
w9bnB26tovagx7kjh0+Xa1RJQ+TaTMrfSkUHQc3kDUVVktRuUyeE4TQ/BT7Vkdnr
CBTLer81iMoCGWRtdHEF976UmrsabEpxO7j+lMUI5rljM2hmYhwaDSeqc37RstgE
zWXecnc2pFz/4t3fp2XIFGC6/ak5cjYlxNtimhhIJXhVWFk+CvBicSqfM3933rpo
UG/4Z3GSWpEhsmA6bi1/3gleSksfynCCcVL8nt9Z+lxCFL8pzvODKNVafaVDAD6a
L644bE8M+hZsp1JKh3211QIDAQABoxowGDAJBgNVHRMEAjAAMAsGA1UdDwQEAwIF
4DANBgkqhkiG9w0BAQUFAAOCAQEAXWxssfB2IjhzJCG8TsyMf0K5hAun8D+D5l4o
DF8g3Rlcbu7XV03s2PuvzO3V/YXTRYkXnYF1sLmEF0v5W+auH/6aD+UESCGAOF3L
ov0zAQlnUcFF8DTEsJmgLNVubMtmZGYbpGYCCZx8xBzEHljnJ8netYGCIG12YQds
qi72DA5GXMSfYF2Oo2lVSfT/ft75k4hKbFVAh3u1sCzuBPYVJAQ9b2BxdNLmAIPi
u30aA2UOTxSYVRqKvYDbs3jn63o27cJVP1CPHt7qJCDAJnJQfOMfGpl0dn+MeLaO
7eWXDAKJHqpjxhpOM4BEZF26h2zqsckxDZl5soN3Z1Z1vVMx8w==
-----END CERTIFICATE-----
