Certificate:
    Data:
        Version: 3 (0x2)
        Serial Number: 1 (0x1)
    Signature Algorithm: sha1WithRSAEncryption
        Issuer: C=CN, ST=BeiJing, L=BeiJing, O=IIE, OU=IIE/emailAddress=dinghong@iie.ac.cn
        Validity
            Not Before: Apr 16 07:23:19 2019 GMT
            Not After : Apr 15 07:23:19 2021 GMT
        Subject: C=CN, ST=BeiJing, O=IIE, OU=IIE, L=BeiJing, CN=219.143.226.98/emailAddress=dinghong@iie.ac.cn
        Subject Public Key Info:
            Public Key Algorithm: rsaEncryption
                Public-Key: (2048 bit)
                Modulus:
                    00:c0:85:f7:5b:3a:68:53:df:59:49:f9:e6:57:91:
                    e1:b4:f2:99:d9:7c:90:7b:37:9a:d8:bb:af:34:2d:
                    b1:8c:fd:bd:3b:ab:fa:33:ab:f9:0a:a6:b7:55:f0:
                    89:91:d6:36:6b:85:2f:96:c3:40:72:3c:89:12:3b:
                    e3:65:f7:ed:f0:e8:c4:6e:13:2b:0e:d0:bd:25:5f:
                    dc:20:f7:af:c1:58:ac:59:53:6a:b8:fc:0b:8a:dd:
                    e0:2b:71:27:8a:6c:ec:e0:52:6f:c5:a5:ae:88:80:
                    8d:c9:20:07:5e:9b:54:58:68:c6:20:40:fe:e0:61:
                    77:e2:41:14:bb:c0:b6:72:2b:50:fc:57:97:fb:33:
                    5d:c6:d1:7e:ee:76:55:42:a9:1f:5b:ce:95:44:01:
                    61:b3:82:a0:eb:cb:59:df:6f:55:42:04:e1:36:b4:
                    0d:d1:77:82:fe:03:88:5c:b6:72:1b:24:e6:db:57:
                    ca:0a:c3:98:8e:56:d4:92:5e:5d:2f:0d:01:45:93:
                    7f:30:2e:b1:2b:70:8f:66:a4:f2:c9:f9:8b:36:06:
                    d8:18:aa:07:fc:31:8b:ac:fc:83:40:fd:65:b5:d5:
                    2e:45:3a:1c:c1:53:18:fc:03:8c:6f:36:3b:ed:2e:
                    33:d6:3a:29:25:68:08:98:fc:04:9e:ac:ca:8f:b5:
                    56:83
                Exponent: 65537 (0x10001)
        X509v3 extensions:
            X509v3 Basic Constraints: 
                CA:FALSE
            X509v3 Key Usage: 
                Digital Signature, Non Repudiation, Key Encipherment
    Signature Algorithm: sha1WithRSAEncryption
         57:f5:4e:84:28:cb:9d:1c:c9:09:79:3e:f3:fd:a3:c7:5c:74:
         fc:96:b8:60:1b:18:f0:33:34:73:9f:70:2a:44:41:0d:8d:1c:
         70:c2:9a:18:c0:8e:5d:60:d7:7b:ce:46:7b:7d:0d:ac:a8:ff:
         f4:40:9b:d7:21:3b:e1:e3:4f:16:da:a8:31:07:e8:b6:c2:ad:
         a9:bf:97:0e:15:f3:25:91:dd:ba:85:6b:5a:de:c8:9e:ae:02:
         74:a9:ed:2b:85:5e:58:e1:a3:99:f0:92:de:6a:f5:f3:3f:b5:
         8b:ca:41:2a:8c:61:89:36:44:6d:c3:a5:5b:94:88:f1:69:89:
         9c:e7:4e:dc:f8:f3:eb:8e:ec:93:ec:40:f1:32:20:a9:06:00:
         d2:27:38:30:b3:cc:3e:bb:8b:52:40:47:dc:1c:4b:f6:ec:75:
         f7:0d:d4:8a:9c:66:d2:26:c2:19:ea:92:34:2d:f4:ee:61:89:
         4b:9f:56:f7:21:ad:9e:20:b3:d1:47:4f:ac:58:86:0c:cf:90:
         01:2d:f3:5c:ed:eb:b0:93:f3:b7:97:4a:47:be:57:01:ee:82:
         33:bd:24:f3:c3:a2:c7:54:8a:fd:57:97:59:e7:20:4e:1f:6c:
         31:4d:20:5f:5b:ae:1c:20:b4:e2:fa:48:83:18:76:c7:20:50:
         37:5e:56:10
-----BEGIN CERTIFICATE-----
MIIDjzCCAnegAwIBAgIBATANBgkqhkiG9w0BAQUFADBwMQswCQYDVQQGEwJDTjEQ
MA4GA1UECAwHQmVpSmluZzEQMA4GA1UEBwwHQmVpSmluZzEMMAoGA1UECgwDSUlF
MQwwCgYDVQQLDANJSUUxITAfBgkqhkiG9w0BCQEWEmRpbmdob25nQGlpZS5hYy5j
bjAeFw0xOTA0MTYwNzIzMTlaFw0yMTA0MTUwNzIzMTlaMIGJMQswCQYDVQQGEwJD
TjEQMA4GA1UECAwHQmVpSmluZzEMMAoGA1UECgwDSUlFMQwwCgYDVQQLDANJSUUx
EDAOBgNVBAcMB0JlaUppbmcxFzAVBgNVBAMMDjIxOS4xNDMuMjI2Ljk4MSEwHwYJ
KoZIhvcNAQkBFhJkaW5naG9uZ0BpaWUuYWMuY24wggEiMA0GCSqGSIb3DQEBAQUA
A4IBDwAwggEKAoIBAQDAhfdbOmhT31lJ+eZXkeG08pnZfJB7N5rYu680LbGM/b07
q/ozq/kKprdV8ImR1jZrhS+Ww0ByPIkSO+Nl9+3w6MRuEysO0L0lX9wg96/BWKxZ
U2q4/AuK3eArcSeKbOzgUm/Fpa6IgI3JIAdem1RYaMYgQP7gYXfiQRS7wLZyK1D8
V5f7M13G0X7udlVCqR9bzpVEAWGzgqDry1nfb1VCBOE2tA3Rd4L+A4hctnIbJObb
V8oKw5iOVtSSXl0vDQFFk38wLrErcI9mpPLJ+Ys2BtgYqgf8MYus/INA/WW11S5F
OhzBUxj8A4xvNjvtLjPWOiklaAiY/ASerMqPtVaDAgMBAAGjGjAYMAkGA1UdEwQC
MAAwCwYDVR0PBAQDAgXgMA0GCSqGSIb3DQEBBQUAA4IBAQBX9U6EKMudHMkJeT7z
/aPHXHT8lrhgGxjwMzRzn3AqREENjRxwwpoYwI5dYNd7zkZ7fQ2sqP/0QJvXITvh
408W2qgxB+i2wq2pv5cOFfMlkd26hWta3siergJ0qe0rhV5Y4aOZ8JLeavXzP7WL
ykEqjGGJNkRtw6VblIjxaYmc507c+PPrjuyT7EDxMiCpBgDSJzgws8w+u4tSQEfc
HEv27HX3DdSKnGbSJsIZ6pI0LfTuYYlLn1b3Ia2eILPRR0+sWIYMz5ABLfNc7euw
k/O3l0pHvlcB7oIzvSTzw6LHVIr9V5dZ5yBOH2wxTSBfW64cILTi+kiDGHbHIFA3
XlYQ
-----END CERTIFICATE-----
