Certificate:
    Data:
        Version: 3 (0x2)
        Serial Number: 2 (0x2)
    Signature Algorithm: sha1WithRSAEncryption
        Issuer: C=CN, ST=BeiJing, L=BeiJing, O=IIE, OU=IIE/emailAddress=dinghong@iie.ac.cn
        Validity
            Not Before: Apr 16 07:23:51 2019 GMT
            Not After : Apr 15 07:23:51 2021 GMT
        Subject: C=CN, ST=BeiJing, O=IIE, OU=IIE, L=BeiJing, CN=180101010043/emailAddress=dinghong@iie.ac.cn
        Subject Public Key Info:
            Public Key Algorithm: rsaEncryption
                Public-Key: (2048 bit)
                Modulus:
                    00:d9:66:c7:50:55:18:3b:ed:5b:a3:36:c4:5f:d6:
                    97:54:33:cf:30:73:ca:5f:5b:11:04:cf:1b:03:b8:
                    aa:e3:df:88:bb:13:e3:7a:80:4f:4a:73:c9:0b:4c:
                    70:32:f4:e2:46:68:67:90:c9:da:9d:9a:38:61:6b:
                    00:28:6f:d6:ff:b1:46:96:b4:a2:07:61:d0:f9:9d:
                    92:63:c4:29:dd:45:89:66:2d:0a:6f:a3:67:21:45:
                    33:a8:7f:c2:4d:37:12:d2:be:29:1c:48:86:47:4a:
                    ef:69:70:1b:a1:bc:1e:57:33:61:a3:66:a5:04:83:
                    c2:9a:63:c7:6d:98:ad:23:7f:8c:ab:05:40:79:dc:
                    ea:d3:d5:cd:f2:63:b3:cd:26:74:8c:f8:48:e1:40:
                    16:98:29:16:a8:cd:64:14:6d:c4:42:6f:ab:77:e2:
                    d3:06:4a:ec:ff:5e:12:99:c8:3f:11:d2:ee:44:1a:
                    0a:f8:c6:a7:33:01:6c:c8:b8:aa:59:ee:9e:4b:c8:
                    a1:9f:a5:0d:54:4a:32:41:77:0e:e2:48:69:5d:9d:
                    85:5e:5c:f5:54:a4:dc:0b:9d:6a:f9:fe:15:ca:84:
                    2c:ae:54:9b:72:20:3c:50:b8:00:58:5c:b9:56:b8:
                    52:dc:79:91:2b:e5:eb:30:bb:ec:97:5b:86:ac:58:
                    34:77
                Exponent: 65537 (0x10001)
        X509v3 extensions:
            X509v3 Basic Constraints: 
                CA:FALSE
            X509v3 Key Usage: 
                Digital Signature, Non Repudiation, Key Encipherment
    Signature Algorithm: sha1WithRSAEncryption
         37:5e:90:e7:46:b1:74:d0:ed:87:d4:88:5f:1d:9b:e7:3b:9c:
         87:fc:c5:de:e3:96:ef:6e:9a:03:85:2a:57:82:d8:88:cc:a1:
         7a:47:f1:5d:9e:a6:74:a4:73:03:24:29:d6:78:e2:1a:3d:86:
         65:0f:25:83:9e:7e:54:e5:d2:a3:e8:42:21:f2:94:e0:5d:2c:
         5a:4a:f4:21:39:69:23:51:db:c1:1b:2a:ba:42:45:0e:f3:75:
         8c:3d:20:5f:4d:24:d8:df:4d:a5:23:62:a7:d2:e3:fe:3b:61:
         b5:d5:4c:99:9d:0a:bf:35:63:b1:81:20:d8:14:36:a6:fd:11:
         25:d3:8e:79:fd:7c:8c:51:5d:4e:aa:96:d1:47:d5:fd:8a:1b:
         e6:d8:8c:8b:40:6b:de:66:14:5e:be:fd:da:09:95:40:2b:91:
         c4:fa:82:09:66:a2:b6:79:89:bb:7b:0f:4b:e1:a0:5e:c3:cd:
         6b:5f:57:cf:8a:ae:4f:f3:a6:7c:02:b6:af:89:30:7d:ba:0b:
         39:21:84:fe:a3:7a:d8:2e:53:cf:ce:86:3a:72:66:9d:de:67:
         82:8f:1e:38:67:8c:88:5b:f0:4b:7a:98:fe:44:11:35:5f:66:
         4e:3d:1f:69:cd:ca:26:17:5c:ed:90:70:55:28:6d:f3:8a:1f:
         8d:27:c7:a5
-----BEGIN CERTIFICATE-----
MIIDjTCCAnWgAwIBAgIBAjANBgkqhkiG9w0BAQUFADBwMQswCQYDVQQGEwJDTjEQ
MA4GA1UECAwHQmVpSmluZzEQMA4GA1UEBwwHQmVpSmluZzEMMAoGA1UECgwDSUlF
MQwwCgYDVQQLDANJSUUxITAfBgkqhkiG9w0BCQEWEmRpbmdob25nQGlpZS5hYy5j
bjAeFw0xOTA0MTYwNzIzNTFaFw0yMTA0MTUwNzIzNTFaMIGHMQswCQYDVQQGEwJD
TjEQMA4GA1UECAwHQmVpSmluZzEMMAoGA1UECgwDSUlFMQwwCgYDVQQLDANJSUUx
EDAOBgNVBAcMB0JlaUppbmcxFTATBgNVBAMMDDE4MDEwMTAxMDA0MzEhMB8GCSqG
SIb3DQEJARYSZGluZ2hvbmdAaWllLmFjLmNuMIIBIjANBgkqhkiG9w0BAQEFAAOC
AQ8AMIIBCgKCAQEA2WbHUFUYO+1bozbEX9aXVDPPMHPKX1sRBM8bA7iq49+IuxPj
eoBPSnPJC0xwMvTiRmhnkMnanZo4YWsAKG/W/7FGlrSiB2HQ+Z2SY8Qp3UWJZi0K
b6NnIUUzqH/CTTcS0r4pHEiGR0rvaXAbobweVzNho2alBIPCmmPHbZitI3+MqwVA
edzq09XN8mOzzSZ0jPhI4UAWmCkWqM1kFG3EQm+rd+LTBkrs/14Smcg/EdLuRBoK
+ManMwFsyLiqWe6eS8ihn6UNVEoyQXcO4khpXZ2FXlz1VKTcC51q+f4VyoQsrlSb
ciA8ULgAWFy5VrhS3HmRK+XrMLvsl1uGrFg0dwIDAQABoxowGDAJBgNVHRMEAjAA
MAsGA1UdDwQEAwIF4DANBgkqhkiG9w0BAQUFAAOCAQEAN16Q50axdNDth9SIXx2b
5zuch/zF3uOW726aA4UqV4LYiMyhekfxXZ6mdKRzAyQp1njiGj2GZQ8lg55+VOXS
o+hCIfKU4F0sWkr0ITlpI1HbwRsqukJFDvN1jD0gX00k2N9NpSNip9Lj/jthtdVM
mZ0KvzVjsYEg2BQ2pv0RJdOOef18jFFdTqqW0UfV/Yob5tiMi0Br3mYUXr792gmV
QCuRxPqCCWaitnmJu3sPS+GgXsPNa19Xz4quT/OmfAK2r4kwfboLOSGE/qN62C5T
z86GOnJmnd5ngo8eOGeMiFvwS3qY/kQRNV9mTj0fac3KJhdc7ZBwVSht84ofjSfH
pQ==
-----END CERTIFICATE-----
