Certificate:
    Data:
        Version: 3 (0x2)
        Serial Number: 3 (0x3)
    Signature Algorithm: sha1WithRSAEncryption
        Issuer: C=CN, ST=BeiJing, L=BeiJing, O=IIE, OU=IIE/emailAddress=dinghong@iie.ac.cn
        Validity
            Not Before: Apr 16 07:43:51 2019 GMT
            Not After : Apr 15 07:43:51 2021 GMT
        Subject: C=CN, ST=BeiJing, O=IIE, OU=IIE, L=BeiJing, CN=180101010043/emailAddress=dinghong@iie.ac.cn
        Subject Public Key Info:
            Public Key Algorithm: rsaEncryption
                Public-Key: (2048 bit)
                Modulus:
                    00:d5:e0:17:6c:17:ce:fe:01:e7:2e:99:63:6a:ce:
                    65:9d:f4:05:e9:59:4f:67:3d:7b:78:b4:a8:94:ff:
                    47:c7:ff:f3:3b:cd:c7:a8:db:a8:d4:dd:a3:9a:f0:
                    12:53:b4:f8:b0:41:10:18:33:0e:e4:c9:f4:97:24:
                    b7:99:89:8c:89:ea:a6:3c:1d:d3:bb:80:af:f6:04:
                    d8:70:a7:68:1a:c4:4a:81:64:e6:fc:ee:4c:a0:ee:
                    ba:20:f5:42:69:02:44:27:de:1a:c7:c8:5d:9e:9e:
                    b0:d1:d0:14:41:51:ee:fb:50:ae:e1:2f:ea:05:50:
                    00:9a:80:e8:b7:47:f9:90:ab:e4:9d:fe:a0:47:60:
                    52:f0:1d:cc:ec:bf:06:2a:90:9b:d4:71:73:1d:b8:
                    02:03:38:ed:55:18:21:03:23:8b:cd:e4:58:98:c8:
                    d2:30:7b:9d:70:2f:48:21:23:9c:df:06:00:e7:d2:
                    f5:a4:6c:02:45:9b:ed:8b:e8:b4:45:7c:fc:70:c6:
                    46:95:42:b3:1c:ac:02:c0:4a:22:08:f2:14:70:62:
                    32:05:1b:59:07:33:57:37:83:26:be:59:41:83:9f:
                    f2:2f:63:e4:d0:f6:73:e9:6a:76:f2:37:e0:cb:69:
                    29:3a:35:a3:d8:95:fb:2f:d0:24:45:3d:13:f7:e1:
                    44:2b
                Exponent: 65537 (0x10001)
        X509v3 extensions:
            X509v3 Basic Constraints: 
                CA:FALSE
            X509v3 Key Usage: 
                Digital Signature, Non Repudiation, Key Encipherment
    Signature Algorithm: sha1WithRSAEncryption
         59:04:db:b4:7d:95:1a:4d:21:2d:ad:2f:84:5e:d3:4b:4a:49:
         e2:2c:f7:5c:f8:da:24:76:89:d8:a6:9f:5c:bd:85:20:32:24:
         b0:bd:58:79:7c:d4:1c:a3:3a:ad:25:d7:f6:09:8a:23:97:ad:
         5d:90:cd:65:7a:d6:d4:bb:af:b9:e3:45:b4:87:67:ab:99:07:
         0c:a9:b3:b2:b6:e2:4e:6b:76:89:00:44:64:0f:54:f0:a7:be:
         a2:23:ea:85:f9:d8:6c:fe:6a:39:fe:62:45:e6:74:8b:57:48:
         f0:e5:1e:f9:64:76:57:96:cd:b2:27:a7:5b:4f:2e:58:b3:cb:
         62:25:4d:eb:3a:0a:77:64:17:8b:14:b1:64:f7:76:de:2e:aa:
         9c:b1:e5:7e:20:d2:d0:72:1e:1f:df:6e:e3:b6:09:bd:cd:00:
         29:89:56:91:44:c4:50:68:49:f5:d7:1c:88:c8:7d:70:cc:26:
         3d:cf:42:91:89:30:63:36:dc:fa:d0:46:61:59:68:db:fc:c9:
         ba:a0:50:e5:8e:19:14:60:c1:c5:d0:eb:15:e2:fe:23:94:64:
         f1:79:4c:fe:81:f5:93:ed:ca:9e:e2:3b:5e:76:94:0e:44:e6:
         5b:ba:8f:e2:bb:12:28:e0:d1:67:41:87:df:59:5b:45:b4:d1:
         9f:0d:87:94
-----BEGIN CERTIFICATE-----
MIIDjTCCAnWgAwIBAgIBAzANBgkqhkiG9w0BAQUFADBwMQswCQYDVQQGEwJDTjEQ
MA4GA1UECAwHQmVpSmluZzEQMA4GA1UEBwwHQmVpSmluZzEMMAoGA1UECgwDSUlF
MQwwCgYDVQQLDANJSUUxITAfBgkqhkiG9w0BCQEWEmRpbmdob25nQGlpZS5hYy5j
bjAeFw0xOTA0MTYwNzQzNTFaFw0yMTA0MTUwNzQzNTFaMIGHMQswCQYDVQQGEwJD
TjEQMA4GA1UECAwHQmVpSmluZzEMMAoGA1UECgwDSUlFMQwwCgYDVQQLDANJSUUx
EDAOBgNVBAcMB0JlaUppbmcxFTATBgNVBAMMDDE4MDEwMTAxMDA0MzEhMB8GCSqG
SIb3DQEJARYSZGluZ2hvbmdAaWllLmFjLmNuMIIBIjANBgkqhkiG9w0BAQEFAAOC
AQ8AMIIBCgKCAQEA1eAXbBfO/gHnLpljas5lnfQF6VlPZz17eLSolP9Hx//zO83H
qNuo1N2jmvASU7T4sEEQGDMO5Mn0lyS3mYmMieqmPB3Tu4Cv9gTYcKdoGsRKgWTm
/O5MoO66IPVCaQJEJ94ax8hdnp6w0dAUQVHu+1Cu4S/qBVAAmoDot0f5kKvknf6g
R2BS8B3M7L8GKpCb1HFzHbgCAzjtVRghAyOLzeRYmMjSMHudcC9IISOc3wYA59L1
pGwCRZvti+i0RXz8cMZGlUKzHKwCwEoiCPIUcGIyBRtZBzNXN4MmvllBg5/yL2Pk
0PZz6Wp28jfgy2kpOjWj2JX7L9AkRT0T9+FEKwIDAQABoxowGDAJBgNVHRMEAjAA
MAsGA1UdDwQEAwIF4DANBgkqhkiG9w0BAQUFAAOCAQEAWQTbtH2VGk0hLa0vhF7T
S0pJ4iz3XPjaJHaJ2KafXL2FIDIksL1YeXzUHKM6rSXX9gmKI5etXZDNZXrW1Luv
ueNFtIdnq5kHDKmzsrbiTmt2iQBEZA9U8Ke+oiPqhfnYbP5qOf5iReZ0i1dI8OUe
+WR2V5bNsienW08uWLPLYiVN6zoKd2QXixSxZPd23i6qnLHlfiDS0HIeH99u47YJ
vc0AKYlWkUTEUGhJ9dcciMh9cMwmPc9CkYkwYzbc+tBGYVlo2/zJuqBQ5Y4ZFGDB
xdDrFeL+I5Rk8XlM/oH1k+3KnuI7XnaUDkTmW7qP4rsSKODRZ0GH31lbRbTRnw2H
lA==
-----END CERTIFICATE-----
