Certificate:
    Data:
        Version: 3 (0x2)
        Serial Number: 4 (0x4)
    Signature Algorithm: sha1WithRSAEncryption
        Issuer: C=CN, ST=BeiJing, L=BeiJing, O=IIE, OU=IIE/emailAddress=dinghong@iie.ac.cn
        Validity
            Not Before: Apr 16 07:46:31 2019 GMT
            Not After : Apr 15 07:46:31 2021 GMT
        Subject: C=CN, ST=BeiJing, O=IIE, OU=IIE, L=BeiJing, CN=180101010030/emailAddress=dinghong@iie.ac.cn
        Subject Public Key Info:
            Public Key Algorithm: rsaEncryption
                Public-Key: (2048 bit)
                Modulus:
                    00:ac:33:31:c4:f1:18:19:a4:4c:3a:3a:af:57:93:
                    ac:11:c6:14:ea:97:b1:42:32:48:62:d5:73:ae:9b:
                    65:4e:c0:6c:d9:93:91:e2:f4:f6:8b:f9:43:ed:dd:
                    dc:8b:e3:50:77:87:ab:22:7b:1b:82:c8:7d:61:00:
                    06:16:d2:0e:77:7e:c9:87:4b:23:70:10:cb:c5:ee:
                    67:4c:c0:53:3d:24:3c:3b:39:1d:d8:ba:86:c5:c5:
                    97:75:ad:ab:07:52:e1:b6:ce:ef:2d:67:55:a6:2b:
                    2d:2f:0a:a2:5e:df:8b:9e:21:87:33:89:1c:4f:8e:
                    d6:b2:db:e3:ce:13:5d:32:f9:7c:80:cf:23:b0:80:
                    7d:a0:ff:c8:ae:bd:d7:6a:f0:e5:46:8f:ea:37:8e:
                    7e:5b:c0:a2:a8:06:6f:f5:e3:d2:1c:0d:0d:ed:f9:
                    a8:51:59:fd:bb:e6:0a:09:41:01:66:75:62:b6:f4:
                    2a:d5:40:a7:59:61:17:b9:6d:02:6e:ed:c1:72:36:
                    4f:05:1e:36:01:d0:ac:44:13:d7:c4:44:52:75:04:
                    2c:1f:4a:05:94:c3:d9:69:a9:19:68:31:c3:ad:e9:
                    be:48:a2:09:7a:aa:a7:a4:1b:a7:e0:54:f8:5e:9e:
                    c5:b5:21:10:93:e7:bd:06:e7:a2:4e:f9:8b:af:78:
                    0c:e1
                Exponent: 65537 (0x10001)
        X509v3 extensions:
            X509v3 Basic Constraints: 
                CA:FALSE
            X509v3 Key Usage: 
                Digital Signature, Non Repudiation, Key Encipherment
    Signature Algorithm: sha1WithRSAEncryption
         2b:f3:66:c0:ff:b0:32:47:76:ff:ac:b5:d5:67:b3:d4:4b:df:
         fd:ac:d7:5c:3b:1e:88:7a:30:85:ff:3b:da:93:64:9f:5d:5d:
         19:a9:b9:d3:b3:c1:69:21:0d:27:fc:98:6f:41:08:3e:10:19:
         1b:05:e2:34:41:27:8c:a4:3a:79:e4:7e:cc:9d:f7:31:02:9b:
         37:03:4e:40:70:6a:d6:72:7c:55:07:72:2e:f1:8c:e9:8b:9f:
         99:3d:e3:8f:fe:ca:aa:85:08:fc:72:94:c8:91:ad:c7:37:a3:
         ee:b6:78:3d:45:1d:6a:21:87:ad:f6:5b:37:2f:5b:b1:57:32:
         0a:24:4c:57:7c:13:5f:f3:5e:ba:74:2c:b9:b2:5c:5c:db:e4:
         62:aa:35:ce:1a:fc:3c:40:01:6b:f7:08:2c:c4:12:1f:01:02:
         fd:65:63:bc:47:80:a9:14:ea:85:77:07:d9:61:36:9f:50:8b:
         ef:e5:00:d7:d4:4f:e6:b8:08:11:13:74:62:0e:9e:81:26:3d:
         c4:ad:81:6a:d4:38:41:0c:53:1c:64:8f:b3:66:7b:8f:29:a4:
         e3:09:3a:73:d4:65:df:f8:56:3e:f6:41:1c:25:6b:98:f4:ed:
         6b:e6:38:05:d7:c4:12:47:1e:78:1c:73:95:cd:b0:68:48:46:
         c3:2c:5a:22
-----BEGIN CERTIFICATE-----
MIIDjTCCAnWgAwIBAgIBBDANBgkqhkiG9w0BAQUFADBwMQswCQYDVQQGEwJDTjEQ
MA4GA1UECAwHQmVpSmluZzEQMA4GA1UEBwwHQmVpSmluZzEMMAoGA1UECgwDSUlF
MQwwCgYDVQQLDANJSUUxITAfBgkqhkiG9w0BCQEWEmRpbmdob25nQGlpZS5hYy5j
bjAeFw0xOTA0MTYwNzQ2MzFaFw0yMTA0MTUwNzQ2MzFaMIGHMQswCQYDVQQGEwJD
TjEQMA4GA1UECAwHQmVpSmluZzEMMAoGA1UECgwDSUlFMQwwCgYDVQQLDANJSUUx
EDAOBgNVBAcMB0JlaUppbmcxFTATBgNVBAMMDDE4MDEwMTAxMDAzMDEhMB8GCSqG
SIb3DQEJARYSZGluZ2hvbmdAaWllLmFjLmNuMIIBIjANBgkqhkiG9w0BAQEFAAOC
AQ8AMIIBCgKCAQEArDMxxPEYGaRMOjqvV5OsEcYU6pexQjJIYtVzrptlTsBs2ZOR
4vT2i/lD7d3ci+NQd4erInsbgsh9YQAGFtIOd37Jh0sjcBDLxe5nTMBTPSQ8Ozkd
2LqGxcWXda2rB1Lhts7vLWdVpistLwqiXt+LniGHM4kcT47WstvjzhNdMvl8gM8j
sIB9oP/Irr3XavDlRo/qN45+W8CiqAZv9ePSHA0N7fmoUVn9u+YKCUEBZnVitvQq
1UCnWWEXuW0Cbu3BcjZPBR42AdCsRBPXxERSdQQsH0oFlMPZaakZaDHDrem+SKIJ
eqqnpBun4FT4Xp7FtSEQk+e9BueiTvmLr3gM4QIDAQABoxowGDAJBgNVHRMEAjAA
MAsGA1UdDwQEAwIF4DANBgkqhkiG9w0BAQUFAAOCAQEAK/NmwP+wMkd2/6y11Wez
1Evf/azXXDseiHowhf872pNkn11dGam507PBaSENJ/yYb0EIPhAZGwXiNEEnjKQ6
eeR+zJ33MQKbNwNOQHBq1nJ8VQdyLvGM6YufmT3jj/7KqoUI/HKUyJGtxzej7rZ4
PUUdaiGHrfZbNy9bsVcyCiRMV3wTX/NeunQsubJcXNvkYqo1zhr8PEABa/cILMQS
HwEC/WVjvEeAqRTqhXcH2WE2n1CL7+UA19RP5rgIERN0Yg6egSY9xK2BatQ4QQxT
HGSPs2Z7jymk4wk6c9Rl3/hWPvZBHCVrmPTta+Y4BdfEEkceeBxzlc2waEhGwyxa
Ig==
-----END CERTIFICATE-----
