Certificate:
    Data:
        Version: 3 (0x2)
        Serial Number: 5 (0x5)
        Signature Algorithm: sha1WithRSAEncryption
        Issuer: C=CN, ST=BeiJing, L=BeiJing, O=IIE, OU=IIE/emailAddress=dinghong@iie.ac.cn
        Validity
            Not Before: Apr 16 12:50:50 2019 GMT
            Not After : Apr 15 12:50:50 2021 GMT
        Subject: C=CN, ST=BeiJing, O=IIE, OU=IIE, L=BeiJing, CN=190406010001/emailAddress=dinghong@iie.ac.cn
        Subject Public Key Info:
            Public Key Algorithm: rsaEncryption
                RSA Public-Key: (2048 bit)
                Modulus:
                    00:c9:5c:80:3b:86:06:3e:89:0c:21:fc:d2:18:33:
                    9b:13:bc:90:17:f4:9a:7e:da:ca:b7:46:bf:f3:64:
                    5c:1d:2b:76:c3:a7:e0:66:67:af:34:a1:01:d4:36:
                    d0:ae:51:c4:dc:88:ad:a4:e7:df:e8:71:1a:2e:1e:
                    44:bb:73:93:4c:e7:ff:5c:6e:34:a0:54:63:7f:25:
                    66:46:13:e2:0a:a5:64:67:0c:9e:d8:bf:92:b6:11:
                    a0:e4:35:86:9c:33:8e:20:8c:b3:44:db:7f:35:06:
                    f9:d0:28:05:d0:f9:9d:7f:0b:3c:3c:55:59:d8:40:
                    fd:f4:42:9b:a4:81:3e:62:49:8f:89:97:f4:e3:8c:
                    18:aa:d4:f7:7b:40:86:b0:d7:8d:41:a8:3c:a4:c2:
                    97:84:90:ed:30:91:6a:5c:56:00:11:51:25:18:59:
                    79:7a:a3:c0:fb:1c:10:06:b6:cb:39:2a:7b:2d:01:
                    f7:b4:22:cb:f1:f6:32:aa:87:db:1a:53:e5:42:7a:
                    52:52:3d:46:99:1c:77:97:df:27:c3:f5:80:8d:0e:
                    4a:d4:05:14:2b:56:e1:cc:b4:cc:cd:fa:10:6b:74:
                    59:20:8a:9f:11:5f:1f:31:89:50:c2:a3:b2:fe:33:
                    98:c3:44:81:51:77:95:0b:e6:78:6f:f5:ab:e8:f5:
                    c0:13
                Exponent: 65537 (0x10001)
        X509v3 extensions:
            X509v3 Basic Constraints: 
                CA:FALSE
            X509v3 Key Usage: 
                Digital Signature, Non Repudiation, Key Encipherment
    Signature Algorithm: sha1WithRSAEncryption
         2f:52:20:1b:18:fd:00:be:27:07:b9:71:42:38:22:10:f8:1a:
         df:ad:f7:71:14:ff:c9:ce:4c:55:ec:1c:a8:f6:2c:6c:d3:eb:
         e9:29:6c:6c:13:07:74:ee:16:18:86:6b:07:48:c3:a9:07:49:
         36:92:bd:da:c5:41:18:10:52:11:aa:0e:1f:bd:71:13:8e:dc:
         86:38:51:34:55:18:37:97:21:07:12:1a:44:72:d9:43:37:23:
         e9:24:1e:d8:f0:55:69:f0:98:35:6a:28:a7:f4:35:f1:fd:51:
         71:79:ed:54:68:6a:cd:92:69:d6:73:a7:d6:8f:da:71:8d:cc:
         d6:d5:93:01:7a:32:30:b0:94:50:c2:6a:f8:bd:96:49:fa:9c:
         aa:cc:38:38:2e:9a:b9:86:2e:0e:60:12:89:43:da:ec:8f:5c:
         37:9c:0f:c7:69:2c:44:92:e0:16:e6:5e:5e:55:ad:73:79:af:
         16:9c:e8:cf:ac:73:90:c3:54:8d:e4:43:5c:94:f9:59:ae:a2:
         6b:ed:16:f5:d4:a0:dd:3a:5e:16:39:be:67:bd:4e:e0:d1:79:
         8e:47:d1:9f:15:50:40:b4:8f:5f:21:bf:a5:c7:77:86:d3:e1:
         1d:0e:2d:6a:6f:17:75:16:a5:49:cd:97:21:6f:76:b0:da:c5:
         04:a0:a8:58
-----BEGIN CERTIFICATE-----
MIIDjTCCAnWgAwIBAgIBBTANBgkqhkiG9w0BAQUFADBwMQswCQYDVQQGEwJDTjEQ
MA4GA1UECAwHQmVpSmluZzEQMA4GA1UEBwwHQmVpSmluZzEMMAoGA1UECgwDSUlF
MQwwCgYDVQQLDANJSUUxITAfBgkqhkiG9w0BCQEWEmRpbmdob25nQGlpZS5hYy5j
bjAeFw0xOTA0MTYxMjUwNTBaFw0yMTA0MTUxMjUwNTBaMIGHMQswCQYDVQQGEwJD
TjEQMA4GA1UECAwHQmVpSmluZzEMMAoGA1UECgwDSUlFMQwwCgYDVQQLDANJSUUx
EDAOBgNVBAcMB0JlaUppbmcxFTATBgNVBAMMDDE5MDQwNjAxMDAwMTEhMB8GCSqG
SIb3DQEJARYSZGluZ2hvbmdAaWllLmFjLmNuMIIBIjANBgkqhkiG9w0BAQEFAAOC
AQ8AMIIBCgKCAQEAyVyAO4YGPokMIfzSGDObE7yQF/SaftrKt0a/82RcHSt2w6fg
ZmevNKEB1DbQrlHE3IitpOff6HEaLh5Eu3OTTOf/XG40oFRjfyVmRhPiCqVkZwye
2L+SthGg5DWGnDOOIIyzRNt/NQb50CgF0Pmdfws8PFVZ2ED99EKbpIE+YkmPiZf0
44wYqtT3e0CGsNeNQag8pMKXhJDtMJFqXFYAEVElGFl5eqPA+xwQBrbLOSp7LQH3
tCLL8fYyqofbGlPlQnpSUj1GmRx3l98nw/WAjQ5K1AUUK1bhzLTMzfoQa3RZIIqf
EV8fMYlQwqOy/jOYw0SBUXeVC+Z4b/Wr6PXAEwIDAQABoxowGDAJBgNVHRMEAjAA
MAsGA1UdDwQEAwIF4DANBgkqhkiG9w0BAQUFAAOCAQEAL1IgGxj9AL4nB7lxQjgi
EPga3633cRT/yc5MVewcqPYsbNPr6SlsbBMHdO4WGIZrB0jDqQdJNpK92sVBGBBS
EaoOH71xE47chjhRNFUYN5chBxIaRHLZQzcj6SQe2PBVafCYNWoop/Q18f1RcXnt
VGhqzZJp1nOn1o/acY3M1tWTAXoyMLCUUMJq+L2WSfqcqsw4OC6auYYuDmASiUPa
7I9cN5wPx2ksRJLgFuZeXlWtc3mvFpzoz6xzkMNUjeRDXJT5Wa6ia+0W9dSg3Tpe
Fjm+Z71O4NF5jkfRnxVQQLSPXyG/pcd3htPhHQ4tam8XdRalSc2XIW92sNrFBKCo
WA==
-----END CERTIFICATE-----
