Certificate:
    Data:
        Version: 3 (0x2)
        Serial Number: 64206 (0xface)
    Signature Algorithm: sha1WithRSAEncryption
        Issuer: C=CN, ST=BeiJing, L=BeiJing, O=IIE, OU=IIE, CN=180101010044/emailAddress=dinghong@iie.ac.cn
        Validity
            Not Before: Apr 16 03:40:54 2019 GMT
            Not After : Apr 15 03:40:54 2021 GMT
        Subject: C=CN, ST=BeiJing, O=IIE, OU=IIE, L=BeiJing, CN=180101010044/emailAddress=dinghong@iie.ac.cn
        Subject Public Key Info:
            Public Key Algorithm: rsaEncryption
                Public-Key: (2048 bit)
                Modulus:
                    00:a1:02:00:ba:c1:b1:df:c0:b8:fc:d9:1e:e0:87:
                    21:45:f3:81:ea:fd:98:49:88:20:f9:cd:2c:9d:d6:
                    39:95:5d:9b:74:00:2f:b5:f4:8b:a3:69:c5:20:8c:
                    9d:91:56:b8:9f:3f:86:fa:a3:52:7b:00:68:0e:36:
                    03:c5:69:26:6e:aa:ff:c3:ea:99:5a:95:ab:f8:2b:
                    18:0f:73:cb:02:bb:15:77:d4:26:d0:22:d2:ba:96:
                    37:87:8e:08:34:03:da:a9:18:6b:09:6c:9b:3d:62:
                    00:7f:ea:8a:9f:11:0b:a3:e8:c9:49:b3:10:63:e9:
                    91:67:90:13:5f:2b:72:bc:f6:59:22:d2:cb:13:9a:
                    f1:10:cc:26:2d:bf:98:46:9f:53:7e:c7:ae:42:48:
                    42:e8:fd:69:d2:2d:87:91:88:fe:36:28:bc:f0:b4:
                    1f:3e:77:d1:8f:2e:28:82:38:15:03:a7:b9:ec:ed:
                    7f:87:18:2c:1b:42:42:e2:88:60:fc:9a:85:e4:ae:
                    f1:8d:f2:50:fc:a8:34:04:ca:77:9c:e7:44:d6:d6:
                    57:81:12:0b:2b:79:4b:3c:97:49:fb:fd:3a:41:01:
                    a3:8f:5c:63:af:7f:62:5c:78:83:1f:50:b3:c1:6e:
                    e0:a9:96:be:0a:f9:3f:a4:3c:df:e5:ed:13:56:2d:
                    27:ff
                Exponent: 65537 (0x10001)
        X509v3 extensions:
            X509v3 Basic Constraints: 
                CA:FALSE
            X509v3 Key Usage: 
                Digital Signature, Non Repudiation, Key Encipherment
    Signature Algorithm: sha1WithRSAEncryption
         41:42:42:cc:01:59:d9:15:a9:cc:0b:3c:c6:6c:39:4a:b6:75:
         21:74:7a:22:f3:80:01:2e:58:bf:45:bd:44:38:d2:9c:62:31:
         2b:cb:83:f2:14:bd:46:63:13:c3:17:77:76:3b:ba:4a:ef:0e:
         2e:1e:b8:02:6b:eb:4c:81:0a:bc:4f:fb:67:d6:63:1b:5a:71:
         7f:a2:99:f1:3c:6a:45:6b:e2:6c:00:7c:52:23:cf:49:70:74:
         94:d6:29:35:10:bc:d5:bf:10:9e:da:7b:59:94:e9:2d:aa:65:
         af:2c:f3:60:5b:8a:c4:34:64:f7:bb:ac:f1:f3:f9:88:10:18:
         3f:af:20:e1:1a:27:6f:45:04:b3:8a:e3:1b:5f:01:fb:ee:52:
         c7:52:c4:65:72:10:58:cb:22:4e:3f:36:bf:92:34:41:ca:c9:
         87:d8:70:6a:ac:e3:44:1b:00:ff:48:cd:9b:af:9e:6c:04:a3:
         59:8c:02:24:22:44:1b:b9:ac:a5:3b:fa:96:c0:ff:7b:2d:40:
         7f:e2:3b:f6:39:d3:6b:28:12:f6:d5:db:03:32:11:17:ac:8c:
         9d:f5:f7:53:93:ee:d3:cc:b4:be:d1:11:24:4a:92:70:1d:df:
         a1:de:9b:9a:c5:76:da:07:76:2a:4d:86:fc:98:15:33:88:29:
         28:28:93:76
-----BEGIN CERTIFICATE-----
MIIDpzCCAo+gAwIBAgIDAPrOMA0GCSqGSIb3DQEBBQUAMIGHMQswCQYDVQQGEwJD
TjEQMA4GA1UECAwHQmVpSmluZzEQMA4GA1UEBwwHQmVpSmluZzEMMAoGA1UECgwD
SUlFMQwwCgYDVQQLDANJSUUxFTATBgNVBAMMDDE4MDEwMTAxMDA0NDEhMB8GCSqG
SIb3DQEJARYSZGluZ2hvbmdAaWllLmFjLmNuMB4XDTE5MDQxNjAzNDA1NFoXDTIx
MDQxNTAzNDA1NFowgYcxCzAJBgNVBAYTAkNOMRAwDgYDVQQIDAdCZWlKaW5nMQww
CgYDVQQKDANJSUUxDDAKBgNVBAsMA0lJRTEQMA4GA1UEBwwHQmVpSmluZzEVMBMG
A1UEAwwMMTgwMTAxMDEwMDQ0MSEwHwYJKoZIhvcNAQkBFhJkaW5naG9uZ0BpaWUu
YWMuY24wggEiMA0GCSqGSIb3DQEBAQUAA4IBDwAwggEKAoIBAQChAgC6wbHfwLj8
2R7ghyFF84Hq/ZhJiCD5zSyd1jmVXZt0AC+19IujacUgjJ2RVrifP4b6o1J7AGgO
NgPFaSZuqv/D6plalav4KxgPc8sCuxV31CbQItK6ljeHjgg0A9qpGGsJbJs9YgB/
6oqfEQuj6MlJsxBj6ZFnkBNfK3K89lki0ssTmvEQzCYtv5hGn1N+x65CSELo/WnS
LYeRiP42KLzwtB8+d9GPLiiCOBUDp7ns7X+HGCwbQkLiiGD8moXkrvGN8lD8qDQE
ynec50TW1leBEgsreUs8l0n7/TpBAaOPXGOvf2JceIMfULPBbuCplr4K+T+kPN/l
7RNWLSf/AgMBAAGjGjAYMAkGA1UdEwQCMAAwCwYDVR0PBAQDAgXgMA0GCSqGSIb3
DQEBBQUAA4IBAQBBQkLMAVnZFanMCzzGbDlKtnUhdHoi84ABLli/Rb1EONKcYjEr
y4PyFL1GYxPDF3d2O7pK7w4uHrgCa+tMgQq8T/tn1mMbWnF/opnxPGpFa+JsAHxS
I89JcHSU1ik1ELzVvxCe2ntZlOktqmWvLPNgW4rENGT3u6zx8/mIEBg/ryDhGidv
RQSziuMbXwH77lLHUsRlchBYyyJOPza/kjRBysmH2HBqrONEGwD/SM2br55sBKNZ
jAIkIkQbuaylO/qWwP97LUB/4jv2OdNrKBL21dsDMhEXrIyd9fdTk+7TzLS+0REk
SpJwHd+h3puaxXbaB3YqTYb8mBUziCkoKJN2
-----END CERTIFICATE-----
