Certificate:
    Data:
        Version: 3 (0x2)
        Serial Number: 64207 (0xfacf)
    Signature Algorithm: sha1WithRSAEncryption
        Issuer: C=CN, ST=BeiJing, L=BeiJing, O=IIE, OU=IIE, CN=180101010044/emailAddress=dinghong@iie.ac.cn
        Validity
            Not Before: Apr 16 03:42:44 2019 GMT
            Not After : Apr 15 03:42:44 2021 GMT
        Subject: C=CN, ST=BeiJing, O=IIE, OU=IIE, L=BeiJing, CN=180101010044/emailAddress=dinghong@iie.ac.cn
        Subject Public Key Info:
            Public Key Algorithm: rsaEncryption
                Public-Key: (2048 bit)
                Modulus:
                    00:d4:3c:cd:73:34:c5:8e:11:23:a0:23:dc:7f:44:
                    c2:37:8d:74:86:d5:46:45:0d:66:bc:6f:0d:27:67:
                    7e:70:fb:4f:4a:1b:88:61:b5:7c:6a:40:15:de:1f:
                    26:bc:2b:df:22:aa:72:e4:77:94:77:5f:3b:75:1e:
                    78:dd:db:c4:bc:8a:3b:4a:5b:d4:80:09:67:a2:28:
                    fc:4b:eb:80:fa:b4:99:ff:1f:96:e3:2f:52:d3:e0:
                    24:75:63:e5:c7:f0:cd:ad:e6:d3:b8:31:51:fe:4b:
                    e7:79:bf:c3:1d:6f:f4:8b:36:c8:c7:96:dd:ac:bf:
                    c9:b3:f2:7d:46:6e:28:ee:4a:de:d8:0e:5b:35:b0:
                    5c:ac:34:8d:c9:31:36:2f:5b:c7:ac:1d:8a:25:f1:
                    b2:62:9f:37:65:97:95:a2:6e:fb:fc:f7:fe:47:20:
                    86:0c:59:dd:93:3c:c7:71:37:ff:da:da:23:e4:06:
                    cc:3d:20:4c:96:a5:b5:23:b8:b4:b3:05:1a:8a:e5:
                    d5:75:1a:7d:cc:44:b2:bd:d6:ff:83:ac:74:35:08:
                    9f:7f:3e:06:fa:64:f3:53:ac:b1:06:7d:68:f0:97:
                    b7:17:68:67:2f:a2:1c:fc:aa:48:45:e1:ca:e8:82:
                    08:0e:b4:96:37:b1:24:a1:81:a0:d7:d9:79:5b:3a:
                    3b:4d
                Exponent: 65537 (0x10001)
        X509v3 extensions:
            X509v3 Basic Constraints: 
                CA:FALSE
            X509v3 Key Usage: 
                Digital Signature, Non Repudiation, Key Encipherment
    Signature Algorithm: sha1WithRSAEncryption
         16:f5:c3:de:c6:92:f0:b8:be:9d:c4:95:b9:fa:9f:60:96:95:
         79:32:a7:a3:26:ad:c5:3d:21:e3:29:34:5a:c7:23:65:d7:bd:
         e4:43:51:d0:d4:97:c3:94:c4:00:f6:74:3a:64:3a:88:a3:f5:
         ad:49:bd:0a:b6:aa:3a:a0:d9:21:7d:84:d2:b5:35:83:a4:5b:
         83:cf:e1:13:f2:75:84:ca:36:3b:24:85:a2:07:39:1d:26:31:
         52:76:1c:b8:9d:d1:cb:86:28:cf:a3:5d:c4:d8:2e:d9:91:86:
         95:78:31:da:92:c7:7f:ba:70:a8:0f:15:fe:b5:54:a9:bd:0a:
         84:35:5d:16:39:27:6d:21:5f:9c:44:d2:0d:74:13:cf:4c:66:
         29:77:12:7e:3f:2e:53:9a:b6:7e:8f:6f:84:3e:79:29:55:86:
         71:73:b4:82:db:ec:2d:ce:c6:26:9d:fd:88:b4:dc:34:0a:06:
         89:2f:47:8c:6e:5a:8c:89:28:60:b8:c1:10:f6:97:62:72:d7:
         78:d1:4f:e2:b1:e5:4b:31:80:da:6f:56:71:45:99:12:8f:2b:
         98:f0:5b:a8:12:36:5d:f8:76:b2:b2:d5:23:aa:6e:b8:17:c5:
         36:0f:2f:9a:6f:83:3c:26:0b:f1:c3:09:18:d0:6e:7a:be:01:
         ed:57:68:e9
-----BEGIN CERTIFICATE-----
MIIDpzCCAo+gAwIBAgIDAPrPMA0GCSqGSIb3DQEBBQUAMIGHMQswCQYDVQQGEwJD
TjEQMA4GA1UECAwHQmVpSmluZzEQMA4GA1UEBwwHQmVpSmluZzEMMAoGA1UECgwD
SUlFMQwwCgYDVQQLDANJSUUxFTATBgNVBAMMDDE4MDEwMTAxMDA0NDEhMB8GCSqG
SIb3DQEJARYSZGluZ2hvbmdAaWllLmFjLmNuMB4XDTE5MDQxNjAzNDI0NFoXDTIx
MDQxNTAzNDI0NFowgYcxCzAJBgNVBAYTAkNOMRAwDgYDVQQIDAdCZWlKaW5nMQww
CgYDVQQKDANJSUUxDDAKBgNVBAsMA0lJRTEQMA4GA1UEBwwHQmVpSmluZzEVMBMG
A1UEAwwMMTgwMTAxMDEwMDQ0MSEwHwYJKoZIhvcNAQkBFhJkaW5naG9uZ0BpaWUu
YWMuY24wggEiMA0GCSqGSIb3DQEBAQUAA4IBDwAwggEKAoIBAQDUPM1zNMWOESOg
I9x/RMI3jXSG1UZFDWa8bw0nZ35w+09KG4hhtXxqQBXeHya8K98iqnLkd5R3Xzt1
Hnjd28S8ijtKW9SACWeiKPxL64D6tJn/H5bjL1LT4CR1Y+XH8M2t5tO4MVH+S+d5
v8Mdb/SLNsjHlt2sv8mz8n1GbijuSt7YDls1sFysNI3JMTYvW8esHYol8bJinzdl
l5Wibvv89/5HIIYMWd2TPMdxN//a2iPkBsw9IEyWpbUjuLSzBRqK5dV1Gn3MRLK9
1v+DrHQ1CJ9/Pgb6ZPNTrLEGfWjwl7cXaGcvohz8qkhF4crogggOtJY3sSShgaDX
2XlbOjtNAgMBAAGjGjAYMAkGA1UdEwQCMAAwCwYDVR0PBAQDAgXgMA0GCSqGSIb3
DQEBBQUAA4IBAQAW9cPexpLwuL6dxJW5+p9glpV5MqejJq3FPSHjKTRaxyNl173k
Q1HQ1JfDlMQA9nQ6ZDqIo/WtSb0Ktqo6oNkhfYTStTWDpFuDz+ET8nWEyjY7JIWi
BzkdJjFSdhy4ndHLhijPo13E2C7ZkYaVeDHaksd/unCoDxX+tVSpvQqENV0WOSdt
IV+cRNINdBPPTGYpdxJ+Py5TmrZ+j2+EPnkpVYZxc7SC2+wtzsYmnf2ItNw0CgaJ
L0eMblqMiShguMEQ9pdictd40U/iseVLMYDab1ZxRZkSjyuY8FuoEjZd+HaystUj
qm64F8U2Dy+ab4M8JgvxwwkY0G56vgHtV2jp
-----END CERTIFICATE-----
